target datalayout = "e-m:e-p270:32:32-p271:32:32-p272:64:64-i64:64-i128:128-f80:128-n8:16:32:64-S128"
target triple = "x86_64-pc-linux-gnu"

@stderr = external global ptr, align 8
@.str.26 = private unnamed_addr constant [25 x i8] c"../openssl/fuzz/ml-kem.c\00", align 1
@.str.27 = private unnamed_addr constant [33 x i8] c"failed to create keygen context\0A\00", align 1
@.str.28 = private unnamed_addr constant [31 x i8] c"failed to init derive context\0A\00", align 1
@.str.29 = private unnamed_addr constant [20 x i8] c"failed to set peer\0A\00", align 1
@.str.30 = private unnamed_addr constant [17 x i8] c"Derive failed 1\0A\00", align 1
@.str.31 = private unnamed_addr constant [17 x i8] c"Failed to alloc\0A\00", align 1
@.str.32 = private unnamed_addr constant [17 x i8] c"Derive failed 2\0A\00", align 1

; Function Attrs: nounwind uwtable
define internal void @do_derive(ptr noundef %0, ptr noundef %1, ptr noundef %2, ptr noundef %3) #0 {
  %5 = alloca ptr, align 8
  %6 = alloca ptr, align 8
  %7 = alloca ptr, align 8
  %8 = alloca ptr, align 8
  %9 = alloca ptr, align 8
  store ptr %0, ptr %5, align 8, !tbaa !27
  store ptr %1, ptr %6, align 8, !tbaa !27
  store ptr %2, ptr %7, align 8, !tbaa !23
  store ptr %3, ptr %8, align 8, !tbaa !21
  call void @llvm.lifetime.start.p0(i64 8, ptr %9) #7
  store ptr null, ptr %9, align 8, !tbaa !29
  %10 = load ptr, ptr %7, align 8, !tbaa !23
  store ptr null, ptr %10, align 8, !tbaa !11
  %11 = load ptr, ptr %8, align 8, !tbaa !21
  store i64 0, ptr %11, align 8, !tbaa !13
  %12 = load ptr, ptr %5, align 8, !tbaa !27
  %13 = call ptr @EVP_PKEY_CTX_new_from_pkey(ptr noundef null, ptr noundef %12, ptr noundef null)
  store ptr %13, ptr %9, align 8, !tbaa !29
  %14 = load ptr, ptr %9, align 8, !tbaa !29
  %15 = icmp eq ptr %14, null
  br i1 %15, label %16, label %19

16:                                               ; preds = %4
  %17 = load ptr, ptr @stderr, align 8, !tbaa !33
  %18 = call i32 (ptr, ptr, ...) @fprintf(ptr noundef %17, ptr noundef @.str.27) #7
  br label %73

19:                                               ; preds = %4
  %20 = load ptr, ptr %9, align 8, !tbaa !29
  %21 = call i32 @EVP_PKEY_derive_init(ptr noundef %20)
  %22 = icmp ne i32 %21, 0
  br i1 %22, label %26, label %23

23:                                               ; preds = %19
  %24 = load ptr, ptr @stderr, align 8, !tbaa !33
  %25 = call i32 (ptr, ptr, ...) @fprintf(ptr noundef %24, ptr noundef @.str.28) #7
  br label %73

26:                                               ; preds = %19
  %27 = load ptr, ptr %9, align 8, !tbaa !29
  %28 = load ptr, ptr %6, align 8, !tbaa !27
  %29 = call i32 @EVP_PKEY_derive_set_peer(ptr noundef %27, ptr noundef %28)
  %30 = icmp ne i32 %29, 0
  br i1 %30, label %34, label %31

31:                                               ; preds = %26
  %32 = load ptr, ptr @stderr, align 8, !tbaa !33
  %33 = call i32 (ptr, ptr, ...) @fprintf(ptr noundef %32, ptr noundef @.str.29) #7
  br label %73

34:                                               ; preds = %26
  %35 = load ptr, ptr %9, align 8, !tbaa !29
  %36 = load ptr, ptr %8, align 8, !tbaa !21
  %37 = call i32 @EVP_PKEY_derive(ptr noundef %35, ptr noundef null, ptr noundef %36)
  %38 = icmp ne i32 %37, 0
  br i1 %38, label %42, label %39

39:                                               ; preds = %34
  %40 = load ptr, ptr @stderr, align 8, !tbaa !33
  %41 = call i32 (ptr, ptr, ...) @fprintf(ptr noundef %40, ptr noundef @.str.30) #7
  br label %73

42:                                               ; preds = %34
  %43 = load ptr, ptr %8, align 8, !tbaa !21
  %44 = load i64, ptr %43, align 8, !tbaa !13
  %45 = icmp eq i64 %44, 0
  br i1 %45, label %46, label %47

46:                                               ; preds = %42
  br label %73

47:                                               ; preds = %42
  %48 = load ptr, ptr %8, align 8, !tbaa !21
  %49 = load i64, ptr %48, align 8, !tbaa !13
  %50 = call noalias ptr @CRYPTO_zalloc(i64 noundef %49, ptr noundef @.str.26, i32 noundef 371)
  %51 = load ptr, ptr %7, align 8, !tbaa !23
  store ptr %50, ptr %51, align 8, !tbaa !11
  %52 = load ptr, ptr %7, align 8, !tbaa !23
  %53 = load ptr, ptr %52, align 8, !tbaa !11
  %54 = icmp eq ptr %53, null
  br i1 %54, label %55, label %58

55:                                               ; preds = %47
  %56 = load ptr, ptr @stderr, align 8, !tbaa !33
  %57 = call i32 (ptr, ptr, ...) @fprintf(ptr noundef %56, ptr noundef @.str.31) #7
  br label %73

58:                                               ; preds = %47
  %59 = load ptr, ptr %9, align 8, !tbaa !29
  %60 = load ptr, ptr %7, align 8, !tbaa !23
  %61 = load ptr, ptr %60, align 8, !tbaa !11
  %62 = load ptr, ptr %8, align 8, !tbaa !21
  %63 = call i32 @EVP_PKEY_derive(ptr noundef %59, ptr noundef %61, ptr noundef %62)
  %64 = icmp ne i32 %63, 0
  br i1 %64, label %72, label %65

65:                                               ; preds = %58
  %66 = load ptr, ptr @stderr, align 8, !tbaa !33
  %67 = call i32 (ptr, ptr, ...) @fprintf(ptr noundef %66, ptr noundef @.str.32) #7
  %68 = load ptr, ptr %7, align 8, !tbaa !23
  %69 = load ptr, ptr %68, align 8, !tbaa !11
  call void @CRYPTO_free(ptr noundef %69, ptr noundef @.str.26, i32 noundef 378)
  %70 = load ptr, ptr %7, align 8, !tbaa !23
  store ptr null, ptr %70, align 8, !tbaa !11
  %71 = load ptr, ptr %8, align 8, !tbaa !21
  store i64 0, ptr %71, align 8, !tbaa !13
  br label %73

72:                                               ; preds = %58
  br label %73

73:                                               ; preds = %72, %65, %55, %46, %39, %31, %23, %16
  %74 = load ptr, ptr %9, align 8, !tbaa !29
  call void @EVP_PKEY_CTX_free(ptr noundef %74)
  call void @llvm.lifetime.end.p0(i64 8, ptr %9) #7
  ret void
}