; Function Attrs: nounwind uwtable
define internal fastcc void @do_derive(ptr noundef %0, ptr noundef %1, ptr noundef nonnull captures(none) initializes((0, 8)) %2, ptr noundef nonnull initializes((0, 8)) %3) unnamed_addr #1 {
  store ptr null, ptr %2, align 8, !tbaa !11
  store i64 0, ptr %3, align 8, !tbaa !9
  %5 = tail call ptr @EVP_PKEY_CTX_new_from_pkey(ptr noundef null, ptr noundef %0, ptr noundef null) #6
  %6 = icmp eq ptr %5, null
  br i1 %6, label %7, label %10

7:                                                ; preds = %4
  %8 = load ptr, ptr @stderr, align 8, !tbaa !16
  %9 = tail call i64 @fwrite(ptr nonnull @.str.27, i64 32, i64 1, ptr %8) #7
  br label %40

10:                                               ; preds = %4
  %11 = tail call i32 @EVP_PKEY_derive_init(ptr noundef nonnull %5) #6
  %.not = icmp eq i32 %11, 0
  br i1 %.not, label %12, label %15

12:                                               ; preds = %10
  %13 = load ptr, ptr @stderr, align 8, !tbaa !16
  %14 = tail call i64 @fwrite(ptr nonnull @.str.28, i64 30, i64 1, ptr %13) #7
  br label %40

15:                                               ; preds = %10
  %16 = tail call i32 @EVP_PKEY_derive_set_peer(ptr noundef nonnull %5, ptr noundef %1) #6
  %.not22 = icmp eq i32 %16, 0
  br i1 %.not22, label %17, label %20

17:                                               ; preds = %15
  %18 = load ptr, ptr @stderr, align 8, !tbaa !16
  %19 = tail call i64 @fwrite(ptr nonnull @.str.29, i64 19, i64 1, ptr %18) #7
  br label %40

20:                                               ; preds = %15
  %21 = tail call i32 @EVP_PKEY_derive(ptr noundef nonnull %5, ptr noundef null, ptr noundef nonnull %3) #6
  %.not23 = icmp eq i32 %21, 0
  br i1 %.not23, label %22, label %25

22:                                               ; preds = %20
  %23 = load ptr, ptr @stderr, align 8, !tbaa !16
  %24 = tail call i64 @fwrite(ptr nonnull @.str.30, i64 16, i64 1, ptr %23) #7
  br label %40

25:                                               ; preds = %20
  %26 = load i64, ptr %3, align 8, !tbaa !9
  %27 = icmp eq i64 %26, 0
  br i1 %27, label %40, label %28

28:                                               ; preds = %25
  %29 = tail call noalias ptr @CRYPTO_zalloc(i64 noundef %26, ptr noundef nonnull @.str.26, i32 noundef 371) #6
  store ptr %29, ptr %2, align 8, !tbaa !11
  %30 = icmp eq ptr %29, null
  br i1 %30, label %31, label %34

31:                                               ; preds = %28
  %32 = load ptr, ptr @stderr, align 8, !tbaa !16
  %33 = tail call i64 @fwrite(ptr nonnull @.str.31, i64 16, i64 1, ptr %32) #7
  br label %40

34:                                               ; preds = %28
  %35 = tail call i32 @EVP_PKEY_derive(ptr noundef nonnull %5, ptr noundef nonnull %29, ptr noundef nonnull %3) #6
  %.not24 = icmp eq i32 %35, 0
  br i1 %.not24, label %36, label %40

36:                                               ; preds = %34
  %37 = load ptr, ptr @stderr, align 8, !tbaa !16
  %38 = tail call i64 @fwrite(ptr nonnull @.str.32, i64 16, i64 1, ptr %37) #7
  %39 = load ptr, ptr %2, align 8, !tbaa !11
  tail call void @CRYPTO_free(ptr noundef %39, ptr noundef nonnull @.str.26, i32 noundef 378) #6
  store ptr null, ptr %2, align 8, !tbaa !11
  store i64 0, ptr %3, align 8, !tbaa !9
  br label %40

40:                                               ; preds = %34, %25, %36, %31, %22, %17, %12, %7
  tail call void @EVP_PKEY_CTX_free(ptr noundef %5) #6
  ret void
}